target datalayout = "e-m:e-p270:32:32-p271:32:32-p272:64:64-i64:64-i128:128-f80:128-n8:16:32:64-S128"
target triple = "x86_64-pc-linux-gnu"

%struct.fetch_negotiator = type { ptr, ptr, ptr, ptr, ptr, ptr }
%struct.negotiation_state = type { %struct.prio_queue, i32 }
%struct.prio_queue = type { ptr, i64, ptr, i64, i64, ptr }
%struct.commit = type { %struct.object, i64, ptr, ptr, i32 }
%struct.object = type { i32, %struct.object_id }
%struct.object_id = type { [32 x i8], i32 }

@the_repository = external global ptr, align 8

; Function Attrs: inlinehint nounwind uwtable
define internal i32 @repo_parse_commit(ptr noundef %0, ptr noundef %1) #3 {
  %3 = alloca ptr, align 8
  %4 = alloca ptr, align 8
  store ptr %0, ptr %3, align 8, !tbaa !25
  store ptr %1, ptr %4, align 8, !tbaa !27
  %5 = load ptr, ptr %3, align 8, !tbaa !25
  %6 = load ptr, ptr %4, align 8, !tbaa !27
  %7 = call i32 @repo_parse_commit_gently(ptr noundef %5, ptr noundef %6, i32 noundef 0)
  ret i32 %7
}

; Function Attrs: nounwind uwtable
define internal void @rev_list_push(ptr noundef %0, ptr noundef %1, i32 noundef %2) #0 {
  %4 = alloca ptr, align 8
  %5 = alloca ptr, align 8
  %6 = alloca i32, align 4
  store ptr %0, ptr %4, align 8, !tbaa !15
  store ptr %1, ptr %5, align 8, !tbaa !27
  store i32 %2, ptr %6, align 4, !tbaa !24
  %7 = load ptr, ptr %5, align 8, !tbaa !27
  %8 = getelementptr inbounds nuw %struct.commit, ptr %7, i32 0, i32 0
  %9 = load i32, ptr %8, align 8
  %10 = lshr i32 %9, 4
  %11 = load i32, ptr %6, align 4, !tbaa !24
  %12 = and i32 %10, %11
  %13 = icmp ne i32 %12, 0
  br i1 %13, label %47, label %14

14:                                               ; preds = %3
  %15 = load i32, ptr %6, align 4, !tbaa !24
  %16 = load ptr, ptr %5, align 8, !tbaa !27
  %17 = getelementptr inbounds nuw %struct.commit, ptr %16, i32 0, i32 0
  %18 = load i32, ptr %17, align 8
  %19 = lshr i32 %18, 4
  %20 = or i32 %19, %15
  %21 = load i32, ptr %17, align 8
  %22 = and i32 %20, 268435455
  %23 = shl i32 %22, 4
  %24 = and i32 %21, 15
  %25 = or i32 %24, %23
  store i32 %25, ptr %17, align 8
  %26 = load ptr, ptr @the_repository, align 8, !tbaa !25
  %27 = load ptr, ptr %5, align 8, !tbaa !27
  %28 = call i32 @repo_parse_commit(ptr noundef %26, ptr noundef %27)
  %29 = icmp ne i32 %28, 0
  br i1 %29, label %30, label %31

30:                                               ; preds = %14
  br label %47

31:                                               ; preds = %14
  %32 = load ptr, ptr %4, align 8, !tbaa !15
  %33 = getelementptr inbounds nuw %struct.negotiation_state, ptr %32, i32 0, i32 0
  %34 = load ptr, ptr %5, align 8, !tbaa !27
  call void @prio_queue_put(ptr noundef %33, ptr noundef %34)
  %35 = load ptr, ptr %5, align 8, !tbaa !27
  %36 = getelementptr inbounds nuw %struct.commit, ptr %35, i32 0, i32 0
  %37 = load i32, ptr %36, align 8
  %38 = lshr i32 %37, 4
  %39 = and i32 %38, 4
  %40 = icmp ne i32 %39, 0
  br i1 %40, label %46, label %41

41:                                               ; preds = %31
  %42 = load ptr, ptr %4, align 8, !tbaa !15
  %43 = getelementptr inbounds nuw %struct.negotiation_state, ptr %42, i32 0, i32 1
  %44 = load i32, ptr %43, align 8, !tbaa !36
  %45 = add nsw i32 %44, 1
  store i32 %45, ptr %43, align 8, !tbaa !36
  br label %46

46:                                               ; preds = %41, %31
  br label %47

47:                                               ; preds = %30, %46, %3
  ret void
}

; Function Attrs: nounwind uwtable
define internal void @add_tip(ptr noundef %0, ptr noundef %1) #0 {
  %3 = alloca ptr, align 8
  %4 = alloca ptr, align 8
  store ptr %0, ptr %3, align 8, !tbaa !4
  store ptr %1, ptr %4, align 8, !tbaa !27
  %5 = load ptr, ptr %3, align 8, !tbaa !4
  %6 = getelementptr inbounds nuw %struct.fetch_negotiator, ptr %5, i32 0, i32 0
  store ptr null, ptr %6, align 8, !tbaa !9
  %7 = load ptr, ptr %3, align 8, !tbaa !4
  %8 = getelementptr inbounds nuw %struct.fetch_negotiator, ptr %7, i32 0, i32 5
  %9 = load ptr, ptr %8, align 8, !tbaa !17
  %10 = load ptr, ptr %4, align 8, !tbaa !27
  call void @rev_list_push(ptr noundef %9, ptr noundef %10, i32 noundef 16)
  ret void
}