; Function Attrs: nounwind uwtable
define internal void @add_tip(ptr noundef captures(none) initializes((0, 8)) %0, ptr noundef %1) #0 {
  store ptr null, ptr %0, align 8, !tbaa !4
  %3 = getelementptr inbounds nuw i8, ptr %0, i64 40
  %4 = load ptr, ptr %3, align 8, !tbaa !13
  %5 = load i32, ptr %1, align 8
  %6 = and i32 %5, 256
  %.not.i = icmp eq i32 %6, 0
  br i1 %.not.i, label %7, label %rev_list_push.exit

7:                                                ; preds = %2
  %8 = or disjoint i32 %5, 256
  store i32 %8, ptr %1, align 8
  %9 = load ptr, ptr @the_repository, align 8, !tbaa !20
  %10 = tail call i32 @repo_parse_commit_gently(ptr noundef %9, ptr noundef nonnull %1, i32 noundef 0) #5
  %.not8.i = icmp eq i32 %10, 0
  br i1 %.not8.i, label %11, label %rev_list_push.exit

11:                                               ; preds = %7
  tail call void @prio_queue_put(ptr noundef %4, ptr noundef nonnull %1) #5
  %12 = load i32, ptr %1, align 8
  %13 = and i32 %12, 64
  %.not9.i = icmp eq i32 %13, 0
  br i1 %.not9.i, label %14, label %rev_list_push.exit

14:                                               ; preds = %11
  %15 = getelementptr inbounds nuw i8, ptr %4, i64 48
  %16 = load i32, ptr %15, align 8, !tbaa !22
  %17 = add nsw i32 %16, 1
  store i32 %17, ptr %15, align 8, !tbaa !22
  br label %rev_list_push.exit

rev_list_push.exit:                               ; preds = %2, %7, %11, %14
  ret void
}